target datalayout = "e-m:e-p270:32:32-p271:32:32-p272:64:64-i64:64-i128:128-f80:128-n8:16:32:64-S128"
target triple = "x86_64-pc-linux-gnu"

%"struct.Luau::NotNull" = type { ptr }
%"struct.Luau::NotNull.0" = type { ptr }
%"struct.Luau::NotNull.1" = type { ptr }
%"struct.Luau::TypeFunctionReductionGuesser" = type { %"class.Luau::DenseHashMap", %"class.Luau::DenseHashMap", %"class.Luau::VecDeque", %"class.Luau::DenseHashSet", %"struct.Luau::NotNull", %"struct.Luau::NotNull.0", %"struct.Luau::NotNull.1" }
%"class.Luau::DenseHashMap" = type { %"class.Luau::detail::DenseHashTable" }
%"class.Luau::detail::DenseHashTable" = type <{ ptr, i64, i64, ptr, [8 x i8] }>
%"class.Luau::VecDeque" = type { ptr, i64, i64, i64 }
%"class.Luau::DenseHashSet" = type { %"class.Luau::detail::DenseHashTable.2" }
%"class.Luau::detail::DenseHashTable.2" = type <{ ptr, i64, i64, ptr, [8 x i8] }>
%"class.std::optional.5" = type { %"struct.std::_Optional_base.6" }
%"struct.std::_Optional_base.6" = type { %"struct.std::_Optional_payload.8" }
%"struct.std::_Optional_payload.8" = type { %"struct.std::_Optional_payload.base", [7 x i8] }
%"struct.std::_Optional_payload.base" = type { %"struct.std::_Optional_payload_base.base" }
%"struct.std::_Optional_payload_base.base" = type <{ %"union.std::_Optional_payload_base<std::__cxx11::basic_string<char>>::_Storage", i8 }>
%"union.std::_Optional_payload_base<std::__cxx11::basic_string<char>>::_Storage" = type { %"class.std::__cxx11::basic_string" }
%"class.std::__cxx11::basic_string" = type { %"struct.std::__cxx11::basic_string<char>::_Alloc_hider", i64, %union.anon }
%"struct.std::__cxx11::basic_string<char>::_Alloc_hider" = type { ptr }
%union.anon = type { i64, [8 x i8] }
%"struct.Luau::Type" = type { %"class.Luau::Variant", i8, [7 x i8], %"class.std::optional.5", ptr }
%"class.Luau::Variant" = type { i32, [4 x i8], [336 x i8] }

; Function Attrs: mustprogress nounwind uwtable
define linkonce_odr dso_local noundef ptr @_ZNK4Luau7VariantIJNS_9Unifiable5BoundIPKNS_4TypeEEENS1_5ErrorIS5_EENS_8FreeTypeENS_11GenericTypeENS_13PrimitiveTypeENS_13SingletonTypeENS_11BlockedTypeENS_20PendingExpansionTypeENS_12FunctionTypeENS_9TableTypeENS_13MetatableTypeENS_9ClassTypeENS_7AnyTypeENS_9UnionTypeENS_16IntersectionTypeENS_8LazyTypeENS_11UnknownTypeENS_9NeverTypeENS_12NegationTypeENS_12NoRefineTypeENS_24TypeFunctionInstanceTypeEEE6get_ifISR_EEPKT_v(ptr noundef nonnull align 8 dereferenceable(344) %0) #6 comdat align 2 {
  %2 = alloca ptr, align 8
  %3 = alloca i32, align 4
  store ptr %0, ptr %2, align 8, !tbaa !586
  %4 = load ptr, ptr %2, align 8
  call void @llvm.lifetime.start.p0(i64 4, ptr %3) #4
  store i32 20, ptr %3, align 4, !tbaa !4
  %5 = getelementptr inbounds nuw %"class.Luau::Variant", ptr %4, i32 0, i32 0
  %6 = load i32, ptr %5, align 8, !tbaa !588
  %7 = icmp eq i32 20, %6
  br i1 %7, label %8, label %10

8:                                                ; preds = %1
  %9 = getelementptr inbounds nuw %"class.Luau::Variant", ptr %4, i32 0, i32 2
  br label %11

10:                                               ; preds = %1
  br label %11

11:                                               ; preds = %10, %8
  %12 = phi ptr [ %9, %8 ], [ null, %10 ]
  call void @llvm.lifetime.end.p0(i64 4, ptr %3) #4
  ret ptr %12
}

; Function Attrs: mustprogress uwtable
define linkonce_odr dso_local noundef ptr @_ZN4Luau6get_ifINS_24TypeFunctionInstanceTypeEJNS_9Unifiable5BoundIPKNS_4TypeEEENS2_5ErrorIS6_EENS_8FreeTypeENS_11GenericTypeENS_13PrimitiveTypeENS_13SingletonTypeENS_11BlockedTypeENS_20PendingExpansionTypeENS_12FunctionTypeENS_9TableTypeENS_13MetatableTypeENS_9ClassTypeENS_7AnyTypeENS_9UnionTypeENS_16IntersectionTypeENS_8LazyTypeENS_11UnknownTypeENS_9NeverTypeENS_12NegationTypeENS_12NoRefineTypeES1_EEEPKT_PKNS_7VariantIJDpT0_EEE(ptr noundef %0) #5 comdat {
  %2 = alloca ptr, align 8
  store ptr %0, ptr %2, align 8, !tbaa !586
  %3 = load ptr, ptr %2, align 8, !tbaa !586
  %4 = icmp ne ptr %3, null
  br i1 %4, label %5, label %8

5:                                                ; preds = %1
  %6 = load ptr, ptr %2, align 8, !tbaa !586
  %7 = call noundef ptr @_ZNK4Luau7VariantIJNS_9Unifiable5BoundIPKNS_4TypeEEENS1_5ErrorIS5_EENS_8FreeTypeENS_11GenericTypeENS_13PrimitiveTypeENS_13SingletonTypeENS_11BlockedTypeENS_20PendingExpansionTypeENS_12FunctionTypeENS_9TableTypeENS_13MetatableTypeENS_9ClassTypeENS_7AnyTypeENS_9UnionTypeENS_16IntersectionTypeENS_8LazyTypeENS_11UnknownTypeENS_9NeverTypeENS_12NegationTypeENS_12NoRefineTypeENS_24TypeFunctionInstanceTypeEEE6get_ifISR_EEPKT_v(ptr noundef nonnull align 8 dereferenceable(344) %6)
  br label %9

8:                                                ; preds = %1
  br label %9

9:                                                ; preds = %8, %5
  %10 = phi ptr [ %7, %5 ], [ null, %8 ]
  ret ptr %10
}

; Function Attrs: mustprogress nounwind uwtable
define linkonce_odr dso_local noundef i64 @_ZNK4Luau8VecDequeIPKNS_4TypeESaIS3_EE8capacityEv(ptr noundef nonnull align 8 dereferenceable(32) %0) #6 comdat align 2 {
  %2 = alloca ptr, align 8
  store ptr %0, ptr %2, align 8, !tbaa !29
  %3 = load ptr, ptr %2, align 8
  %4 = getelementptr inbounds nuw %"class.Luau::VecDeque", ptr %3, i32 0, i32 1
  %5 = load i64, ptr %4, align 8, !tbaa !33
  ret i64 %5
}

; Function Attrs: mustprogress uwtable
define linkonce_odr dso_local noundef ptr @_ZN4Luau3getINS_24TypeFunctionInstanceTypeEEEPKT_PKNS_4TypeE(ptr noundef %0) #5 comdat {
  %2 = alloca ptr, align 8
  store ptr %0, ptr %2, align 8, !tbaa !11
  %3 = load ptr, ptr %2, align 8, !tbaa !11
  %4 = getelementptr inbounds nuw %"struct.Luau::Type", ptr %3, i32 0, i32 0
  %5 = call noundef ptr @_ZN4Luau6get_ifINS_24TypeFunctionInstanceTypeEJNS_9Unifiable5BoundIPKNS_4TypeEEENS2_5ErrorIS6_EENS_8FreeTypeENS_11GenericTypeENS_13PrimitiveTypeENS_13SingletonTypeENS_11BlockedTypeENS_20PendingExpansionTypeENS_12FunctionTypeENS_9TableTypeENS_13MetatableTypeENS_9ClassTypeENS_7AnyTypeENS_9UnionTypeENS_16IntersectionTypeENS_8LazyTypeENS_11UnknownTypeENS_9NeverTypeENS_12NegationTypeENS_12NoRefineTypeES1_EEEPKT_PKNS_7VariantIJDpT0_EEE(ptr noundef %4)
  ret ptr %5
}

; Function Attrs: mustprogress nounwind uwtable
define linkonce_odr dso_local void @_ZN4Luau8VecDequeIPKNS_4TypeESaIS3_EE9pop_frontEv(ptr noundef nonnull align 8 dereferenceable(32) %0) #6 comdat align 2 {
  %2 = alloca ptr, align 8
  store ptr %0, ptr %2, align 8, !tbaa !29
  %3 = load ptr, ptr %2, align 8
  %4 = getelementptr inbounds nuw %"class.Luau::VecDeque", ptr %3, i32 0, i32 2
  %5 = load i64, ptr %4, align 8, !tbaa !34
  %6 = add i64 %5, 1
  store i64 %6, ptr %4, align 8, !tbaa !34
  %7 = getelementptr inbounds nuw %"class.Luau::VecDeque", ptr %3, i32 0, i32 3
  %8 = load i64, ptr %7, align 8, !tbaa !35
  %9 = add i64 %8, -1
  store i64 %9, ptr %7, align 8, !tbaa !35
  %10 = getelementptr inbounds nuw %"class.Luau::VecDeque", ptr %3, i32 0, i32 2
  %11 = load i64, ptr %10, align 8, !tbaa !34
  %12 = call noundef i64 @_ZNK4Luau8VecDequeIPKNS_4TypeESaIS3_EE8capacityEv(ptr noundef nonnull align 8 dereferenceable(32) %3) #4
  %13 = icmp eq i64 %11, %12
  br i1 %13, label %14, label %16

14:                                               ; preds = %1
  %15 = getelementptr inbounds nuw %"class.Luau::VecDeque", ptr %3, i32 0, i32 2
  store i64 0, ptr %15, align 8, !tbaa !34
  br label %16

16:                                               ; preds = %14, %1
  ret void
}

; Function Attrs: mustprogress nounwind uwtable
define linkonce_odr dso_local noundef nonnull align 8 dereferenceable(8) ptr @_ZN4Luau8VecDequeIPKNS_4TypeESaIS3_EE5frontEv(ptr noundef nonnull align 8 dereferenceable(32) %0) #6 comdat align 2 {
  %2 = alloca ptr, align 8
  store ptr %0, ptr %2, align 8, !tbaa !29
  %3 = load ptr, ptr %2, align 8
  %4 = getelementptr inbounds nuw %"class.Luau::VecDeque", ptr %3, i32 0, i32 0
  %5 = load ptr, ptr %4, align 8, !tbaa !31
  %6 = getelementptr inbounds nuw %"class.Luau::VecDeque", ptr %3, i32 0, i32 2
  %7 = load i64, ptr %6, align 8, !tbaa !34
  %8 = getelementptr inbounds nuw ptr, ptr %5, i64 %7
  ret ptr %8
}

; Function Attrs: mustprogress nounwind uwtable
define linkonce_odr dso_local noundef zeroext i1 @_ZNK4Luau8VecDequeIPKNS_4TypeESaIS3_EE5emptyEv(ptr noundef nonnull align 8 dereferenceable(32) %0) #6 comdat align 2 {
  %2 = alloca ptr, align 8
  store ptr %0, ptr %2, align 8, !tbaa !29
  %3 = load ptr, ptr %2, align 8
  %4 = getelementptr inbounds nuw %"class.Luau::VecDeque", ptr %3, i32 0, i32 3
  %5 = load i64, ptr %4, align 8, !tbaa !35
  %6 = icmp eq i64 %5, 0
  ret i1 %6
}

; Function Attrs: mustprogress uwtable
define dso_local void @_ZN4Luau28TypeFunctionReductionGuesser4stepEv(ptr noundef nonnull align 8 dereferenceable(176) %0) #5 align 2 {
  %2 = alloca ptr, align 8
  %3 = alloca ptr, align 8
  %4 = alloca ptr, align 8
  store ptr %0, ptr %2, align 8, !tbaa !8
  %5 = load ptr, ptr %2, align 8
  call void @llvm.lifetime.start.p0(i64 8, ptr %3) #4
  %6 = getelementptr inbounds nuw %"struct.Luau::TypeFunctionReductionGuesser", ptr %5, i32 0, i32 2
  %7 = call noundef nonnull align 8 dereferenceable(8) ptr @_ZN4Luau8VecDequeIPKNS_4TypeESaIS3_EE5frontEv(ptr noundef nonnull align 8 dereferenceable(32) %6)
  %8 = load ptr, ptr %7, align 8, !tbaa !11
  store ptr %8, ptr %3, align 8, !tbaa !11
  %9 = getelementptr inbounds nuw %"struct.Luau::TypeFunctionReductionGuesser", ptr %5, i32 0, i32 2
  call void @_ZN4Luau8VecDequeIPKNS_4TypeESaIS3_EE9pop_frontEv(ptr noundef nonnull align 8 dereferenceable(32) %9)
  %10 = load ptr, ptr %3, align 8, !tbaa !11
  %11 = call noundef ptr @_ZN4Luau6followEPKNS_4TypeE(ptr noundef %10)
  store ptr %11, ptr %3, align 8, !tbaa !11
  call void @llvm.lifetime.start.p0(i64 8, ptr %4) #4
  %12 = load ptr, ptr %3, align 8, !tbaa !11
  %13 = call noundef ptr @_ZN4Luau3getINS_24TypeFunctionInstanceTypeEEEPKT_PKNS_4TypeE(ptr noundef %12)
  store ptr %13, ptr %4, align 8, !tbaa !140
  %14 = load ptr, ptr %4, align 8, !tbaa !140
  %15 = icmp ne ptr %14, null
  br i1 %15, label %16, label %19

16:                                               ; preds = %1
  %17 = load ptr, ptr %3, align 8, !tbaa !11
  %18 = load ptr, ptr %4, align 8, !tbaa !140
  call void @_ZN4Luau28TypeFunctionReductionGuesser30inferTypeFunctionSubstitutionsEPKNS_4TypeEPKNS_24TypeFunctionInstanceTypeE(ptr noundef nonnull align 8 dereferenceable(176) %5, ptr noundef %17, ptr noundef %18)
  br label %19

19:                                               ; preds = %16, %1
  call void @llvm.lifetime.end.p0(i64 8, ptr %4) #4
  call void @llvm.lifetime.end.p0(i64 8, ptr %3) #4
  ret void
}

; Function Attrs: mustprogress nounwind uwtable
define dso_local noundef zeroext i1 @_ZN4Luau28TypeFunctionReductionGuesser4doneEv(ptr noundef nonnull align 8 dereferenceable(176) %0) #6 align 2 {
  %2 = alloca ptr, align 8
  store ptr %0, ptr %2, align 8, !tbaa !8
  %3 = load ptr, ptr %2, align 8
  %4 = getelementptr inbounds nuw %"struct.Luau::TypeFunctionReductionGuesser", ptr %3, i32 0, i32 2
  %5 = call noundef zeroext i1 @_ZNK4Luau8VecDequeIPKNS_4TypeESaIS3_EE5emptyEv(ptr noundef nonnull align 8 dereferenceable(32) %4) #4
  ret i1 %5
}

; Function Attrs: mustprogress uwtable
define dso_local void @_ZN4Luau28TypeFunctionReductionGuesser5inferEv(ptr noundef nonnull align 8 dereferenceable(176) %0) #5 align 2 {
  %2 = alloca ptr, align 8
  store ptr %0, ptr %2, align 8, !tbaa !8
  %3 = load ptr, ptr %2, align 8
  br label %4

4:                                                ; preds = %7, %1
  %5 = call noundef zeroext i1 @_ZN4Luau28TypeFunctionReductionGuesser4doneEv(ptr noundef nonnull align 8 dereferenceable(176) %3)
  %6 = xor i1 %5, true
  br i1 %6, label %7, label %8

7:                                                ; preds = %4
  call void @_ZN4Luau28TypeFunctionReductionGuesser4stepEv(ptr noundef nonnull align 8 dereferenceable(176) %3)
  br label %4, !llvm.loop !252

8:                                                ; preds = %4
  ret void
}