; Function Attrs: mustprogress uwtable
define dso_local void @_ZN4Luau28TypeFunctionReductionGuesser5inferEv(ptr noundef nonnull align 8 dereferenceable(176) %0) local_unnamed_addr #8 align 2 {
  %2 = getelementptr inbounds nuw i8, ptr %0, i64 104
  %3 = load i64, ptr %2, align 8, !tbaa !105
  %4 = icmp eq i64 %3, 0
  br i1 %4, label %._crit_edge, label %.lr.ph

.lr.ph:                                           ; preds = %1
  %5 = getelementptr inbounds nuw i8, ptr %0, i64 80
  %6 = getelementptr inbounds nuw i8, ptr %0, i64 96
  %7 = getelementptr inbounds nuw i8, ptr %0, i64 88
  br label %8

8:                                                ; preds = %.lr.ph, %_ZN4Luau28TypeFunctionReductionGuesser4stepEv.exit
  %9 = phi i64 [ %3, %.lr.ph ], [ %24, %_ZN4Luau28TypeFunctionReductionGuesser4stepEv.exit ]
  %10 = load ptr, ptr %5, align 8, !tbaa !99
  %11 = load i64, ptr %6, align 8, !tbaa !104
  %12 = getelementptr inbounds nuw ptr, ptr %10, i64 %11
  %13 = load ptr, ptr %12, align 8, !tbaa !30
  %14 = add i64 %11, 1
  store i64 %14, ptr %6, align 8, !tbaa !104
  %15 = add i64 %9, -1
  store i64 %15, ptr %2, align 8, !tbaa !105
  %16 = load i64, ptr %7, align 8, !tbaa !101
  %17 = icmp eq i64 %14, %16
  br i1 %17, label %18, label %_ZN4Luau8VecDequeIPKNS_4TypeESaIS3_EE9pop_frontEv.exit.i

18:                                               ; preds = %8
  store i64 0, ptr %6, align 8, !tbaa !104
  br label %_ZN4Luau8VecDequeIPKNS_4TypeESaIS3_EE9pop_frontEv.exit.i

_ZN4Luau8VecDequeIPKNS_4TypeESaIS3_EE9pop_frontEv.exit.i: ; preds = %18, %8
  %19 = tail call noundef ptr @_ZN4Luau6followEPKNS_4TypeE(ptr noundef %13)
  %.not.i.i.i = icmp eq ptr %19, null
  br i1 %.not.i.i.i, label %_ZN4Luau28TypeFunctionReductionGuesser4stepEv.exit, label %20

20:                                               ; preds = %_ZN4Luau8VecDequeIPKNS_4TypeESaIS3_EE9pop_frontEv.exit.i
  %21 = load i32, ptr %19, align 8, !tbaa !85
  %22 = icmp eq i32 %21, 20
  br i1 %22, label %_ZN4Luau3getINS_24TypeFunctionInstanceTypeEEEPKT_PKNS_4TypeE.exit.i, label %_ZN4Luau28TypeFunctionReductionGuesser4stepEv.exit

_ZN4Luau3getINS_24TypeFunctionInstanceTypeEEEPKT_PKNS_4TypeE.exit.i: ; preds = %20
  %23 = getelementptr inbounds nuw i8, ptr %19, i64 8
  tail call void @_ZN4Luau28TypeFunctionReductionGuesser30inferTypeFunctionSubstitutionsEPKNS_4TypeEPKNS_24TypeFunctionInstanceTypeE(ptr noundef nonnull align 8 dereferenceable(176) %0, ptr noundef nonnull %19, ptr noundef nonnull %23)
  br label %_ZN4Luau28TypeFunctionReductionGuesser4stepEv.exit

_ZN4Luau28TypeFunctionReductionGuesser4stepEv.exit: ; preds = %_ZN4Luau8VecDequeIPKNS_4TypeESaIS3_EE9pop_frontEv.exit.i, %20, %_ZN4Luau3getINS_24TypeFunctionInstanceTypeEEEPKT_PKNS_4TypeE.exit.i
  %24 = load i64, ptr %2, align 8, !tbaa !105
  %25 = icmp eq i64 %24, 0
  br i1 %25, label %._crit_edge, label %8, !llvm.loop !109

._crit_edge:                                      ; preds = %_ZN4Luau28TypeFunctionReductionGuesser4stepEv.exit, %1
  ret void
}